; Function Attrs: mustprogress nofree norecurse nounwind willreturn memory(readwrite, inaccessiblemem: none) uwtable
define hidden range(i32 0, 2) i32 @_PyThreadState_IsRunningMain(ptr noundef readonly %0) local_unnamed_addr #9 {
  %2 = getelementptr inbounds nuw i8, ptr %0, i64 16
  %3 = load ptr, ptr %2, align 8, !tbaa !221
  %4 = getelementptr inbounds nuw i8, ptr %3, i64 7352
  %5 = load atomic i64, ptr %4 monotonic, align 8
  %6 = inttoptr i64 %5 to ptr
  %7 = icmp eq ptr %0, %6
  %8 = zext i1 %7 to i32
  ret i32 %8
}